target datalayout = "e-m:e-p270:32:32-p271:32:32-p272:64:64-i64:64-i128:128-f80:128-n8:16:32:64-S128"
target triple = "x86_64-pc-linux-gnu"

%class.QList.0 = type { %struct.QArrayDataPointer.3 }
%struct.QArrayDataPointer.3 = type { ptr, ptr, i64 }
%class.InterfaceFrame = type { %class.QFrame, ptr, %class.InterfaceSortFilterModel, %class.InterfaceTreeModel, %class.InfoProxyModel, %class.QMap.10 }
%class.QFrame = type { %class.QWidget }
%class.QWidget = type { %class.QObject, %class.QPaintDevice.base, ptr }
%class.QObject = type { ptr, %class.QScopedPointer }
%class.QScopedPointer = type { ptr }
%class.QPaintDevice.base = type <{ ptr, i16 }>
%class.InterfaceSortFilterModel = type { %class.QSortFilterProxyModel, i8, i8, i8, i8, i8, %class.QList, %class.QList.0 }
%class.QSortFilterProxyModel = type { %class.QAbstractProxyModel }
%class.QAbstractProxyModel = type { %class.QAbstractItemModel }
%class.QAbstractItemModel = type { %class.QObject }
%class.QList = type { %struct.QArrayDataPointer }
%struct.QArrayDataPointer = type { ptr, ptr, i64 }
%class.InterfaceTreeModel = type { %class.QAbstractTableModel, %class.QMap, %class.QMap.4 }
%class.QAbstractTableModel = type { %class.QAbstractItemModel }
%class.QMap = type { %"class.QtPrivate::QExplicitlySharedDataPointerV2" }
%"class.QtPrivate::QExplicitlySharedDataPointerV2" = type { ptr }
%class.QMap.4 = type { %"class.QtPrivate::QExplicitlySharedDataPointerV2.5" }
%"class.QtPrivate::QExplicitlySharedDataPointerV2.5" = type { ptr }
%class.InfoProxyModel = type { %class.QIdentityProxyModel, i32, %class.QList.6 }
%class.QIdentityProxyModel = type { %class.QAbstractProxyModel }
%class.QList.6 = type { %struct.QArrayDataPointer.9 }
%struct.QArrayDataPointer.9 = type { ptr, ptr, i64 }
%class.QMap.10 = type { %"class.QtPrivate::QExplicitlySharedDataPointerV2.11" }
%"class.QtPrivate::QExplicitlySharedDataPointerV2.11" = type { ptr }
%class.QModelIndex = type { i32, i32, i64, ptr }

; Function Attrs: inlinehint mustprogress nounwind null_pointer_is_valid sspstrong uwtable
define linkonce_odr void @_ZN11QModelIndexC2Ev(ptr noundef align 8 dereferenceable_or_null(24) %0) unnamed_addr #4 comdat align 2 {
  %2 = alloca ptr, align 8
  store ptr %0, ptr %2, align 8
  %3 = load ptr, ptr %2, align 8
  %4 = getelementptr inbounds nuw %class.QModelIndex, ptr %3, i32 0, i32 0
  store i32 -1, ptr %4, align 8
  %5 = getelementptr inbounds nuw %class.QModelIndex, ptr %3, i32 0, i32 1
  store i32 -1, ptr %5, align 4
  %6 = getelementptr inbounds nuw %class.QModelIndex, ptr %3, i32 0, i32 2
  store i64 0, ptr %6, align 8
  %7 = getelementptr inbounds nuw %class.QModelIndex, ptr %3, i32 0, i32 3
  store ptr null, ptr %7, align 8
  ret void
}

; Function Attrs: mustprogress null_pointer_is_valid sspstrong uwtable
define void @_ZN14InterfaceFrame16updateStatisticsEv(ptr noundef align 8 dereferenceable_or_null(208) %0) #3 align 2 {
  %2 = alloca ptr, align 8
  %3 = alloca %class.QModelIndex, align 8
  store ptr %0, ptr %2, align 8
  %4 = load ptr, ptr %2, align 8
  %5 = getelementptr inbounds nuw %class.InterfaceFrame, ptr %4, i32 0, i32 3
  call void @llvm.lifetime.start.p0(i64 24, ptr %3) #2
  call void @_ZN11QModelIndexC2Ev(ptr noundef align 8 dereferenceable_or_null(24) %3) #2
  %6 = call noundef i32 @_ZNK18InterfaceTreeModel8rowCountERK11QModelIndex(ptr noundef align 8 dereferenceable_or_null(32) %5, ptr noundef align 8 dereferenceable(24) %3)
  %7 = icmp eq i32 %6, 0
  call void @llvm.lifetime.end.p0(i64 24, ptr %3) #2
  br i1 %7, label %8, label %9

8:                                                ; preds = %1
  br label %9

9:                                                ; preds = %8, %1
  ret void
}